target datalayout = "e-m:e-p270:32:32-p271:32:32-p272:64:64-i64:64-i128:128-f80:128-n8:16:32:64-S128"
target triple = "x86_64-pc-linux-gnu"

; Function Attrs: nounwind uwtable
define i32 @cl_scanfile_callback(ptr noundef %0, ptr noundef %1, ptr noundef %2, ptr noundef %3, ptr noundef %4, ptr noundef %5) #0 {
  %7 = alloca i32, align 4
  %8 = alloca ptr, align 8
  %9 = alloca ptr, align 8
  %10 = alloca ptr, align 8
  %11 = alloca ptr, align 8
  %12 = alloca ptr, align 8
  %13 = alloca ptr, align 8
  %14 = alloca i32, align 4
  %15 = alloca i32, align 4
  %16 = alloca ptr, align 8
  store ptr %0, ptr %8, align 8
  store ptr %1, ptr %9, align 8
  store ptr %2, ptr %10, align 8
  store ptr %3, ptr %11, align 8
  store ptr %4, ptr %12, align 8
  store ptr %5, ptr %13, align 8
  %17 = load ptr, ptr %8, align 8
  store ptr %17, ptr %16, align 8
  %18 = load ptr, ptr %16, align 8
  %19 = icmp ne ptr %18, null
  br i1 %19, label %21, label %20

20:                                               ; preds = %6
  store i32 3, ptr %7, align 4
  br label %49

21:                                               ; preds = %6
  %22 = load ptr, ptr %16, align 8
  %23 = call i32 (ptr, i32, ...) @open(ptr noundef %22, i32 noundef 0)
  store i32 %23, ptr %14, align 4
  %24 = icmp eq i32 %23, -1
  br i1 %24, label %25, label %31

25:                                               ; preds = %21
  %26 = call ptr @__errno_location() #13
  %27 = load i32, ptr %26, align 4
  %28 = icmp eq i32 %27, 13
  br i1 %28, label %29, label %30

29:                                               ; preds = %25
  store i32 16, ptr %7, align 4
  br label %49

30:                                               ; preds = %25
  store i32 8, ptr %7, align 4
  br label %49

31:                                               ; preds = %21
  %32 = load ptr, ptr %16, align 8
  %33 = load ptr, ptr %8, align 8
  %34 = icmp ne ptr %32, %33
  br i1 %34, label %35, label %37

35:                                               ; preds = %31
  %36 = load ptr, ptr %16, align 8
  call void @free(ptr noundef %36) #11
  br label %37

37:                                               ; preds = %35, %31
  %38 = load i32, ptr %14, align 4
  %39 = load ptr, ptr %8, align 8
  %40 = load ptr, ptr %9, align 8
  %41 = load ptr, ptr %10, align 8
  %42 = load ptr, ptr %11, align 8
  %43 = load ptr, ptr %12, align 8
  %44 = load ptr, ptr %13, align 8
  %45 = call i32 @cl_scandesc_callback(i32 noundef %38, ptr noundef %39, ptr noundef %40, ptr noundef %41, ptr noundef %42, ptr noundef %43, ptr noundef %44)
  store i32 %45, ptr %15, align 4
  %46 = load i32, ptr %14, align 4
  %47 = call i32 @close(i32 noundef %46)
  %48 = load i32, ptr %15, align 4
  store i32 %48, ptr %7, align 4
  br label %49

49:                                               ; preds = %37, %30, %29, %20
  %50 = load i32, ptr %7, align 4
  ret i32 %50
}

; Function Attrs: nounwind uwtable
define i32 @cl_scanfile(ptr noundef %0, ptr noundef %1, ptr noundef %2, ptr noundef %3, ptr noundef %4) #0 {
  %6 = alloca ptr, align 8
  %7 = alloca ptr, align 8
  %8 = alloca ptr, align 8
  %9 = alloca ptr, align 8
  %10 = alloca ptr, align 8
  store ptr %0, ptr %6, align 8
  store ptr %1, ptr %7, align 8
  store ptr %2, ptr %8, align 8
  store ptr %3, ptr %9, align 8
  store ptr %4, ptr %10, align 8
  %11 = load ptr, ptr %6, align 8
  %12 = load ptr, ptr %7, align 8
  %13 = load ptr, ptr %8, align 8
  %14 = load ptr, ptr %9, align 8
  %15 = load ptr, ptr %10, align 8
  %16 = call i32 @cl_scanfile_callback(ptr noundef %11, ptr noundef %12, ptr noundef %13, ptr noundef %14, ptr noundef %15, ptr noundef null)
  ret i32 %16
}