; Function Attrs: nounwind uwtable
define i32 @cl_scanfile(ptr noundef %0, ptr noundef %1, ptr noundef %2, ptr noundef %3, ptr noundef %4) local_unnamed_addr #0 {
  %.not.i = icmp eq ptr %0, null
  br i1 %.not.i, label %cl_scanfile_callback.exit, label %6

6:                                                ; preds = %5
  %7 = tail call i32 (ptr, i32, ...) @open(ptr noundef nonnull %0, i32 noundef 0) #16
  %8 = icmp eq i32 %7, -1
  br i1 %8, label %9, label %13

9:                                                ; preds = %6
  %10 = tail call ptr @__errno_location() #20
  %11 = load i32, ptr %10, align 4
  %12 = icmp eq i32 %11, 13
  %..i = select i1 %12, i32 16, i32 8
  br label %cl_scanfile_callback.exit

13:                                               ; preds = %6
  %14 = tail call i32 @cl_scandesc_callback(i32 noundef %7, ptr noundef nonnull %0, ptr noundef %1, ptr noundef %2, ptr noundef %3, ptr noundef %4, ptr noundef null)
  %15 = tail call i32 @close(i32 noundef %7) #16
  br label %cl_scanfile_callback.exit

cl_scanfile_callback.exit:                        ; preds = %5, %9, %13
  %.0.i = phi i32 [ %14, %13 ], [ 3, %5 ], [ %..i, %9 ]
  ret i32 %.0.i
}